target datalayout = "e-m:e-p270:32:32-p271:32:32-p272:64:64-i64:64-i128:128-f80:128-n8:16:32:64-S128"
target triple = "x86_64-pc-linux-gnu"

%"class.lean::list_ref" = type { %"class.lean::object_ref" }
%"class.lean::object_ref" = type { ptr }

@_ZN4leanL12g_annotationE = internal global ptr null, align 8

; Function Attrs: inlinehint mustprogress nounwind uwtable
define internal noundef ptr @_ZL8lean_boxm(i64 noundef %0) #4 {
  %2 = alloca i64, align 8
  store i64 %0, ptr %2, align 8, !tbaa !60
  %3 = load i64, ptr %2, align 8, !tbaa !60
  %4 = shl i64 %3, 1
  %5 = or i64 %4, 1
  %6 = inttoptr i64 %5 to ptr
  ret ptr %6
}

; Function Attrs: mustprogress nounwind uwtable
define linkonce_odr hidden void @_ZN4lean10object_refC2EP11lean_object(ptr noundef nonnull align 8 dereferenceable(8) %0, ptr noundef %1) unnamed_addr #5 comdat align 2 {
  %3 = alloca ptr, align 8
  %4 = alloca ptr, align 8
  store ptr %0, ptr %3, align 8, !tbaa !27
  store ptr %1, ptr %4, align 8, !tbaa !61
  %5 = load ptr, ptr %3, align 8
  %6 = getelementptr inbounds nuw %"class.lean::object_ref", ptr %5, i32 0, i32 0
  %7 = load ptr, ptr %4, align 8, !tbaa !61
  store ptr %7, ptr %6, align 8, !tbaa !29
  ret void
}

; Function Attrs: inlinehint mustprogress uwtable
define linkonce_odr hidden noundef ptr @_ZN4lean3boxEm(i64 noundef %0) #3 comdat {
  %2 = alloca i64, align 8
  store i64 %0, ptr %2, align 8, !tbaa !60
  %3 = load i64, ptr %2, align 8, !tbaa !60
  %4 = call noundef ptr @_ZL8lean_boxm(i64 noundef %3)
  ret ptr %4
}

; Function Attrs: mustprogress uwtable
define linkonce_odr hidden void @_ZN4lean8list_refINS_8pair_refINS_4nameENS_10data_valueEEEEC2Ev(ptr noundef nonnull align 8 dereferenceable(8) %0) unnamed_addr #0 comdat align 2 {
  %2 = alloca ptr, align 8
  store ptr %0, ptr %2, align 8, !tbaa !8
  %3 = load ptr, ptr %2, align 8
  %4 = call noundef ptr @_ZN4lean3boxEm(i64 noundef 0)
  call void @_ZN4lean10object_refC2EP11lean_object(ptr noundef nonnull align 8 dereferenceable(8) %3, ptr noundef %4)
  ret void
}

; Function Attrs: mustprogress uwtable
define hidden void @_ZN4lean19mk_annotation_kvmapERKNS_4nameE(ptr dead_on_unwind noalias writable sret(%"class.lean::list_ref") align 8 %0, ptr noundef nonnull align 8 dereferenceable(8) %1) #0 personality ptr @__gxx_personality_v0 {
  %3 = alloca ptr, align 8
  %4 = alloca ptr, align 8
  %5 = alloca %"class.lean::list_ref", align 8
  %6 = alloca ptr, align 8
  %7 = alloca i32, align 4
  store ptr %0, ptr %3, align 8
  store ptr %1, ptr %4, align 8, !tbaa !3
  call void @llvm.lifetime.start.p0(i64 8, ptr %5) #16
  call void @_ZN4lean8list_refINS_8pair_refINS_4nameENS_10data_valueEEEEC2Ev(ptr noundef nonnull align 8 dereferenceable(8) %5)
  %8 = load ptr, ptr @_ZN4leanL12g_annotationE, align 8, !tbaa !3
  %9 = load ptr, ptr %4, align 8, !tbaa !3
  invoke void @_ZN4lean8set_nameERKNS_8list_refINS_8pair_refINS_4nameENS_10data_valueEEEEERKS2_S9_(ptr dead_on_unwind writable sret(%"class.lean::list_ref") align 8 %0, ptr noundef nonnull align 8 dereferenceable(8) %5, ptr noundef nonnull align 8 dereferenceable(8) %8, ptr noundef nonnull align 8 dereferenceable(8) %9)
          to label %10 unwind label %11

10:                                               ; preds = %2
  call void @_ZN4lean10object_refD2Ev(ptr noundef nonnull align 8 dereferenceable(8) %5) #16
  call void @llvm.lifetime.end.p0(i64 8, ptr %5) #16
  ret void

11:                                               ; preds = %2
  %12 = landingpad { ptr, i32 }
          cleanup
  %13 = extractvalue { ptr, i32 } %12, 0
  store ptr %13, ptr %6, align 8
  %14 = extractvalue { ptr, i32 } %12, 1
  store i32 %14, ptr %7, align 4
  call void @_ZN4lean10object_refD2Ev(ptr noundef nonnull align 8 dereferenceable(8) %5) #16
  call void @llvm.lifetime.end.p0(i64 8, ptr %5) #16
  br label %15

15:                                               ; preds = %11
  %16 = load ptr, ptr %6, align 8
  %17 = load i32, ptr %7, align 4
  %18 = insertvalue { ptr, i32 } poison, ptr %16, 0
  %19 = insertvalue { ptr, i32 } %18, i32 %17, 1
  resume { ptr, i32 } %19
}