; Function Attrs: mustprogress uwtable
define hidden void @_ZN4lean19mk_annotation_kvmapERKNS_4nameE(ptr dead_on_unwind noalias writable sret(%"class.lean::list_ref") align 8 %0, ptr noundef nonnull align 8 dereferenceable(8) %1) local_unnamed_addr #0 personality ptr @__gxx_personality_v0 {
  %3 = alloca %"class.lean::list_ref", align 8
  call void @llvm.lifetime.start.p0(i64 8, ptr nonnull %3) #16
  store ptr inttoptr (i64 1 to ptr), ptr %3, align 8, !tbaa !3
  %4 = load ptr, ptr @_ZN4leanL12g_annotationE, align 8, !tbaa !8
  invoke void @_ZN4lean8set_nameERKNS_8list_refINS_8pair_refINS_4nameENS_10data_valueEEEEERKS2_S9_(ptr dead_on_unwind writable sret(%"class.lean::list_ref") align 8 %0, ptr noundef nonnull align 8 dereferenceable(8) %3, ptr noundef nonnull align 8 dereferenceable(8) %4, ptr noundef nonnull align 8 dereferenceable(8) %1)
          to label %5 unwind label %19

5:                                                ; preds = %2
  %6 = load ptr, ptr %3, align 8, !tbaa !3
  %7 = ptrtoint ptr %6 to i64
  %8 = and i64 %7, 1
  %.not.i.i = icmp eq i64 %8, 0
  br i1 %.not.i.i, label %9, label %_ZN4lean10object_refD2Ev.exit

9:                                                ; preds = %5
  %10 = load i32, ptr %6, align 4, !tbaa !10
  %11 = icmp sgt i32 %10, 1
  br i1 %11, label %12, label %14, !prof !13

12:                                               ; preds = %9
  %13 = add nsw i32 %10, -1
  store i32 %13, ptr %6, align 4, !tbaa !10
  br label %_ZN4lean10object_refD2Ev.exit

14:                                               ; preds = %9
  %.not.i.i.i = icmp eq i32 %10, 0
  br i1 %.not.i.i.i, label %_ZN4lean10object_refD2Ev.exit, label %15

15:                                               ; preds = %14
  invoke void @lean_dec_ref_cold(ptr noundef nonnull %6)
          to label %_ZN4lean10object_refD2Ev.exit unwind label %16

16:                                               ; preds = %15
  %17 = landingpad { ptr, i32 }
          catch ptr null
  %18 = extractvalue { ptr, i32 } %17, 0
  call void @__clang_call_terminate(ptr %18) #17
  unreachable

_ZN4lean10object_refD2Ev.exit:                    ; preds = %5, %12, %14, %15
  call void @llvm.lifetime.end.p0(i64 8, ptr nonnull %3) #16
  ret void

19:                                               ; preds = %2
  %20 = landingpad { ptr, i32 }
          cleanup
  call void @_ZN4lean10object_refD2Ev(ptr noundef nonnull align 8 dereferenceable(8) %3) #16
  call void @llvm.lifetime.end.p0(i64 8, ptr nonnull %3) #16
  resume { ptr, i32 } %20
}